; Function Attrs: mustprogress nounwind uwtable
define hidden void @_ZN27JvmtiEventControllerPrivate13trace_changedEll(i64 noundef %0, i64 noundef %1) local_unnamed_addr #3 align 2 {
  %3 = load i8, ptr @_ZN10JvmtiTrace23_trace_event_controllerE, align 1
  %4 = trunc i8 %3 to i1
  br i1 %4, label %5, label %_ZN16SafeResourceMarkD2Ev.exit

5:                                                ; preds = %2
  %6 = load i32, ptr @_ZN7Threads18_number_of_threadsE, align 4
  %7 = icmp eq i32 %6, 0
  br i1 %7, label %8, label %10

8:                                                ; preds = %5
  %9 = tail call noundef ptr @_ZN9JvmtiUtil29single_threaded_resource_areaEv() #15
  br label %_ZN16SafeResourceMarkC2Ev.exit

10:                                               ; preds = %5
  %11 = tail call align 8 ptr @llvm.threadlocal.address.p0(ptr align 8 @_ZN6Thread12_thr_currentE)
  %12 = load ptr, ptr %11, align 8
  %13 = icmp eq ptr %12, null
  br i1 %13, label %14, label %16

14:                                               ; preds = %10
  %15 = tail call noundef ptr @_ZN9JvmtiUtil29single_threaded_resource_areaEv() #15
  br label %_ZN16SafeResourceMarkC2Ev.exit

16:                                               ; preds = %10
  %17 = getelementptr inbounds i8, ptr %12, i64 800
  %18 = load ptr, ptr %17, align 8
  br label %_ZN16SafeResourceMarkC2Ev.exit

_ZN16SafeResourceMarkC2Ev.exit:                   ; preds = %8, %14, %16
  %.0.i.i = phi ptr [ %9, %8 ], [ %15, %14 ], [ %18, %16 ]
  %19 = getelementptr inbounds i8, ptr %.0.i.i, i64 24
  %20 = load ptr, ptr %19, align 8
  %21 = getelementptr inbounds i8, ptr %.0.i.i, i64 32
  %22 = load ptr, ptr %21, align 8
  %23 = getelementptr inbounds i8, ptr %.0.i.i, i64 40
  %24 = load ptr, ptr %23, align 8
  %25 = getelementptr inbounds i8, ptr %.0.i.i, i64 8
  %26 = load i64, ptr %25, align 8
  br label %27

27:                                               ; preds = %_ZN16SafeResourceMarkC2Ev.exit, %37
  %indvars.iv = phi i64 [ 50, %_ZN16SafeResourceMarkC2Ev.exit ], [ %indvars.iv.next, %37 ]
  %28 = add nsw i64 %indvars.iv, -47
  %29 = shl nuw i64 1, %28
  %30 = and i64 %29, %1
  %.not = icmp eq i64 %30, 0
  br i1 %.not, label %37, label %31

31:                                               ; preds = %27
  %32 = load volatile ptr, ptr getelementptr inbounds (i8, ptr @_ZN16LogTagSetMappingILN6LogTag4typeE69ELS1_0ELS1_0ELS1_0ELS1_0ELS1_0EE7_tagsetE, i64 48), align 8
  %.not12 = icmp eq ptr %32, null
  br i1 %.not12, label %37, label %33

33:                                               ; preds = %31
  %34 = and i64 %29, %0
  %.not8 = icmp eq i64 %34, 0
  %35 = select i1 %.not8, ptr @.str.13, ptr @.str.12
  %36 = getelementptr [0 x ptr], ptr @_ZN10JvmtiTrace12_event_namesE, i64 0, i64 %indvars.iv
  %.0.i = load ptr, ptr %36, align 8
  tail call void (ptr, ...) @_ZN7LogImplILN6LogTag4typeE69ELS1_0ELS1_0ELS1_0ELS1_0ELS1_0EE5writeILN8LogLevel4typeE1EEEvPKcz(ptr noundef nonnull @.str.14, ptr noundef nonnull %35, ptr noundef %.0.i)
  br label %37

37:                                               ; preds = %27, %31, %33
  %indvars.iv.next = add nuw nsw i64 %indvars.iv, 1
  %exitcond.not = icmp eq i64 %indvars.iv.next, 89
  br i1 %exitcond.not, label %38, label %27, !llvm.loop !12

38:                                               ; preds = %37
  %39 = load ptr, ptr %20, align 8
  %.not.i.i.i.i.i = icmp eq ptr %39, null
  br i1 %.not.i.i.i.i.i, label %41, label %40

40:                                               ; preds = %38
  tail call void @_ZN5Arena17set_size_in_bytesEm(ptr noundef nonnull align 8 dereferenceable(48) %.0.i.i, i64 noundef %26) #15
  tail call void @_ZN5Chunk9next_chopEPS_(ptr noundef nonnull %20) #15
  br label %41

41:                                               ; preds = %40, %38
  %42 = load ptr, ptr %21, align 8
  %.not8.i.i.i.i.i = icmp eq ptr %42, %22
  br i1 %.not8.i.i.i.i.i, label %_ZN16SafeResourceMarkD2Ev.exit, label %43

43:                                               ; preds = %41
  store ptr %20, ptr %19, align 8
  store ptr %22, ptr %21, align 8
  store ptr %24, ptr %23, align 8
  br label %_ZN16SafeResourceMarkD2Ev.exit

_ZN16SafeResourceMarkD2Ev.exit:                   ; preds = %43, %41, %2
  ret void
}